target datalayout = "e-m:e-p270:32:32-p271:32:32-p272:64:64-i64:64-i128:128-f80:128-n8:16:32:64-S128"
target triple = "x86_64-pc-linux-gnu"

; Function Attrs: inlinehint mustprogress nounwind uwtable
define internal noundef signext i8 @_ZL9U_SUCCESS10UErrorCode(i32 noundef %0) #5 {
  %2 = alloca i32, align 4
  store i32 %0, ptr %2, align 4, !tbaa !34
  %3 = load i32, ptr %2, align 4, !tbaa !34
  %4 = icmp sle i32 %3, 0
  %5 = zext i1 %4 to i8
  ret i8 %5
}

; Function Attrs: mustprogress uwtable
define i32 @unorm_getQuickCheck_77(i32 noundef %0, i32 noundef %1) #4 {
  %3 = alloca i32, align 4
  %4 = alloca i32, align 4
  %5 = alloca i32, align 4
  %6 = alloca i32, align 4
  %7 = alloca ptr, align 8
  %8 = alloca i32, align 4
  store i32 %0, ptr %4, align 4, !tbaa !37
  store i32 %1, ptr %5, align 4, !tbaa !60
  %9 = load i32, ptr %5, align 4, !tbaa !60
  %10 = icmp sle i32 %9, 1
  br i1 %10, label %14, label %11

11:                                               ; preds = %2
  %12 = load i32, ptr %5, align 4, !tbaa !60
  %13 = icmp sle i32 6, %12
  br i1 %13, label %14, label %15

14:                                               ; preds = %11, %2
  store i32 1, ptr %3, align 4
  br label %30

15:                                               ; preds = %11
  call void @llvm.lifetime.start.p0(i64 4, ptr %6) #12
  store i32 0, ptr %6, align 4, !tbaa !34
  call void @llvm.lifetime.start.p0(i64 8, ptr %7) #12
  %16 = load i32, ptr %5, align 4, !tbaa !60
  %17 = call noundef ptr @_ZN6icu_7718Normalizer2Factory11getInstanceE18UNormalizationModeR10UErrorCode(i32 noundef %16, ptr noundef nonnull align 4 dereferenceable(4) %6)
  store ptr %17, ptr %7, align 8, !tbaa !70
  %18 = load i32, ptr %6, align 4, !tbaa !34
  %19 = call noundef signext i8 @_ZL9U_SUCCESS10UErrorCode(i32 noundef %18)
  %20 = icmp ne i8 %19, 0
  br i1 %20, label %21, label %28

21:                                               ; preds = %15
  %22 = load ptr, ptr %7, align 8, !tbaa !70
  %23 = load i32, ptr %4, align 4, !tbaa !37
  %24 = load ptr, ptr %22, align 8, !tbaa !8
  %25 = getelementptr inbounds ptr, ptr %24, i64 21
  %26 = load ptr, ptr %25, align 8
  %27 = call noundef i32 %26(ptr noundef nonnull align 8 dereferenceable(16) %22, i32 noundef %23)
  store i32 %27, ptr %3, align 4
  store i32 1, ptr %8, align 4
  br label %29

28:                                               ; preds = %15
  store i32 2, ptr %3, align 4
  store i32 1, ptr %8, align 4
  br label %29

29:                                               ; preds = %28, %21
  call void @llvm.lifetime.end.p0(i64 8, ptr %7) #12
  call void @llvm.lifetime.end.p0(i64 4, ptr %6) #12
  br label %30

30:                                               ; preds = %29, %14
  %31 = load i32, ptr %3, align 4
  ret i32 %31
}