; Function Attrs: mustprogress uwtable
define noundef i32 @unorm_getQuickCheck_77(i32 noundef %0, i32 noundef %1) local_unnamed_addr #6 {
  %3 = alloca i32, align 4
  %4 = add i32 %1, -6
  %or.cond = icmp ult i32 %4, -4
  br i1 %or.cond, label %15, label %5

5:                                                ; preds = %2
  call void @llvm.lifetime.start.p0(i64 4, ptr nonnull %3) #13
  store i32 0, ptr %3, align 4, !tbaa !30
  %6 = call noundef ptr @_ZN6icu_7718Normalizer2Factory11getInstanceE18UNormalizationModeR10UErrorCode(i32 noundef %1, ptr noundef nonnull align 4 dereferenceable(4) %3)
  %7 = load i32, ptr %3, align 4, !tbaa !30
  %8 = icmp sgt i32 %7, 0
  br i1 %8, label %14, label %9

9:                                                ; preds = %5
  %10 = load ptr, ptr %6, align 8, !tbaa !3
  %11 = getelementptr inbounds nuw i8, ptr %10, i64 168
  %12 = load ptr, ptr %11, align 8
  %13 = call noundef i32 %12(ptr noundef nonnull align 8 dereferenceable(16) %6, i32 noundef %0)
  br label %14

14:                                               ; preds = %5, %9
  %.1 = phi i32 [ %13, %9 ], [ 2, %5 ]
  call void @llvm.lifetime.end.p0(i64 4, ptr nonnull %3) #13
  br label %15

15:                                               ; preds = %2, %14
  %.0 = phi i32 [ %.1, %14 ], [ 1, %2 ]
  ret i32 %.0
}